(i__main__
LogFile
p0
(dp1
S'_installed_files'
p2
(dp3
S'../../../../../../../../../cvmfs/minerva.opensciencegrid.org/minerva/software_releases/v22r1p1/minerva/EXTERNAL/EXTERNAL_v22r1p1/NuConDB/x86_64-slc7-gcc49-opt/libNuConDBLib.so'
p4
S'../../../../InstallArea/x86_64-slc7-gcc49-opt/lib/libNuConDBLib.so'
p5
ssb.